; Function Attrs: mustprogress nounwind uwtable
define hidden noundef zeroext i1 @_ZNK15ClassLoaderData30is_permanent_class_loader_dataEv(ptr noundef nonnull readonly align 8 dereferenceable(160) %0) local_unnamed_addr #0 align 2 {
  %2 = load ptr, ptr @_ZN15ClassLoaderData27_the_null_class_loader_dataE, align 8
  %3 = icmp eq ptr %2, %0
  br i1 %3, label %_ZNK15ClassLoaderData28is_builtin_class_loader_dataEv.exit.thread, label %4

4:                                                ; preds = %1
  %5 = getelementptr inbounds i8, ptr %0, i64 8
  %6 = load ptr, ptr %5, align 8
  %7 = icmp eq ptr %6, null
  br i1 %7, label %_ZNK15ClassLoaderData28is_builtin_class_loader_dataEv.exit.thread, label %_ZNK15ClassLoaderData25is_boot_class_loader_dataEv.exit.i

_ZNK15ClassLoaderData25is_boot_class_loader_dataEv.exit.i: ; preds = %4
  %8 = load ptr, ptr @_ZN14AccessInternal15RuntimeDispatchILm548932EP7oopDescLNS_11BarrierTypeE2EE10_load_funcE, align 8
  %9 = tail call noundef ptr %8(ptr noundef nonnull %6) #16
  %10 = icmp eq ptr %9, null
  br i1 %10, label %_ZNK15ClassLoaderData28is_builtin_class_loader_dataEv.exit.thread, label %11

11:                                               ; preds = %_ZNK15ClassLoaderData25is_boot_class_loader_dataEv.exit.i
  %12 = load ptr, ptr %5, align 8
  %13 = icmp eq ptr %12, null
  br i1 %13, label %_ZNK15ClassLoaderData12class_loaderEv.exit.i, label %14

14:                                               ; preds = %11
  %15 = load ptr, ptr @_ZN14AccessInternal15RuntimeDispatchILm548932EP7oopDescLNS_11BarrierTypeE2EE10_load_funcE, align 8
  %16 = tail call noundef ptr %15(ptr noundef nonnull %12) #16
  br label %_ZNK15ClassLoaderData12class_loaderEv.exit.i

_ZNK15ClassLoaderData12class_loaderEv.exit.i:     ; preds = %14, %11
  %17 = phi ptr [ %16, %14 ], [ null, %11 ]
  %18 = tail call noundef zeroext i1 @_ZN16SystemDictionary22is_system_class_loaderEP7oopDesc(ptr noundef %17) #16
  br i1 %18, label %_ZNK15ClassLoaderData28is_builtin_class_loader_dataEv.exit.thread, label %19

19:                                               ; preds = %_ZNK15ClassLoaderData12class_loaderEv.exit.i
  %20 = load ptr, ptr %5, align 8
  %21 = icmp eq ptr %20, null
  br i1 %21, label %_ZNK15ClassLoaderData28is_builtin_class_loader_dataEv.exit, label %22

22:                                               ; preds = %19
  %23 = load ptr, ptr @_ZN14AccessInternal15RuntimeDispatchILm548932EP7oopDescLNS_11BarrierTypeE2EE10_load_funcE, align 8
  %24 = tail call noundef ptr %23(ptr noundef nonnull %20) #16
  br label %_ZNK15ClassLoaderData28is_builtin_class_loader_dataEv.exit

_ZNK15ClassLoaderData28is_builtin_class_loader_dataEv.exit: ; preds = %19, %22
  %25 = phi ptr [ %24, %22 ], [ null, %19 ]
  %26 = tail call noundef zeroext i1 @_ZN16SystemDictionary24is_platform_class_loaderEP7oopDesc(ptr noundef %25) #16
  br i1 %26, label %_ZNK15ClassLoaderData28is_builtin_class_loader_dataEv.exit.thread, label %31

_ZNK15ClassLoaderData28is_builtin_class_loader_dataEv.exit.thread: ; preds = %4, %1, %_ZNK15ClassLoaderData25is_boot_class_loader_dataEv.exit.i, %_ZNK15ClassLoaderData12class_loaderEv.exit.i, %_ZNK15ClassLoaderData28is_builtin_class_loader_dataEv.exit
  %27 = getelementptr inbounds i8, ptr %0, i64 33
  %28 = load i8, ptr %27, align 1
  %29 = trunc i8 %28 to i1
  %30 = xor i1 %29, true
  br label %31

31:                                               ; preds = %_ZNK15ClassLoaderData28is_builtin_class_loader_dataEv.exit.thread, %_ZNK15ClassLoaderData28is_builtin_class_loader_dataEv.exit
  %32 = phi i1 [ false, %_ZNK15ClassLoaderData28is_builtin_class_loader_dataEv.exit ], [ %30, %_ZNK15ClassLoaderData28is_builtin_class_loader_dataEv.exit.thread ]
  ret i1 %32
}